target datalayout = "e-m:e-p270:32:32-p271:32:32-p272:64:64-i64:64-i128:128-f80:128-n8:16:32:64-S128"
target triple = "x86_64-pc-linux-gnu"

%struct.MovTextContext = type { ptr, ptr, ptr, ptr, ptr, i32, i32, %struct.StyleBox, %struct.AVBPrint, %struct.HighlightBox, %struct.HilightcolorBox, i8, %struct.StyleBox, i16, ptr, i32, double, i32 }
%struct.AVBPrint = type { ptr, i32, i32, i32, [1 x i8], [1000 x i8] }
%struct.HighlightBox = type { i16, i16 }
%struct.HilightcolorBox = type { i32 }
%struct.StyleBox = type { i16, i16, i8, i16, i8, i32 }

; Function Attrs: nounwind uwtable
define internal i32 @utf8_strlen(ptr noundef %0, i32 noundef %1) #1 {
  %3 = alloca i32, align 4
  %4 = alloca ptr, align 8
  %5 = alloca i32, align 4
  %6 = alloca i32, align 4
  %7 = alloca i32, align 4
  %8 = alloca i8, align 1
  %9 = alloca i32, align 4
  store ptr %0, ptr %4, align 8, !tbaa !43
  store i32 %1, ptr %5, align 4, !tbaa !42
  call void @llvm.lifetime.start.p0(i64 4, ptr %6) #11
  store i32 0, ptr %6, align 4, !tbaa !42
  call void @llvm.lifetime.start.p0(i64 4, ptr %7) #11
  store i32 0, ptr %7, align 4, !tbaa !42
  br label %10

10:                                               ; preds = %60, %2
  %11 = load i32, ptr %6, align 4, !tbaa !42
  %12 = load i32, ptr %5, align 4, !tbaa !42
  %13 = icmp ult i32 %11, %12
  br i1 %13, label %14, label %61

14:                                               ; preds = %10
  call void @llvm.lifetime.start.p0(i64 1, ptr %8) #11
  %15 = load ptr, ptr %4, align 8, !tbaa !43
  %16 = load i32, ptr %6, align 4, !tbaa !42
  %17 = zext i32 %16 to i64
  %18 = getelementptr inbounds nuw i8, ptr %15, i64 %17
  %19 = load i8, ptr %18, align 1, !tbaa !63
  store i8 %19, ptr %8, align 1, !tbaa !63
  %20 = load i8, ptr %8, align 1, !tbaa !63
  %21 = sext i8 %20 to i32
  %22 = and i32 %21, 128
  %23 = icmp eq i32 %22, 0
  br i1 %23, label %24, label %27

24:                                               ; preds = %14
  %25 = load i32, ptr %6, align 4, !tbaa !42
  %26 = add i32 %25, 1
  store i32 %26, ptr %6, align 4, !tbaa !42
  br label %55

27:                                               ; preds = %14
  %28 = load i8, ptr %8, align 1, !tbaa !63
  %29 = sext i8 %28 to i32
  %30 = and i32 %29, 224
  %31 = icmp eq i32 %30, 192
  br i1 %31, label %32, label %35

32:                                               ; preds = %27
  %33 = load i32, ptr %6, align 4, !tbaa !42
  %34 = add i32 %33, 2
  store i32 %34, ptr %6, align 4, !tbaa !42
  br label %54

35:                                               ; preds = %27
  %36 = load i8, ptr %8, align 1, !tbaa !63
  %37 = sext i8 %36 to i32
  %38 = and i32 %37, 240
  %39 = icmp eq i32 %38, 224
  br i1 %39, label %40, label %43

40:                                               ; preds = %35
  %41 = load i32, ptr %6, align 4, !tbaa !42
  %42 = add i32 %41, 3
  store i32 %42, ptr %6, align 4, !tbaa !42
  br label %53

43:                                               ; preds = %35
  %44 = load i8, ptr %8, align 1, !tbaa !63
  %45 = sext i8 %44 to i32
  %46 = and i32 %45, 248
  %47 = icmp eq i32 %46, 240
  br i1 %47, label %48, label %51

48:                                               ; preds = %43
  %49 = load i32, ptr %6, align 4, !tbaa !42
  %50 = add i32 %49, 4
  store i32 %50, ptr %6, align 4, !tbaa !42
  br label %52

51:                                               ; preds = %43
  store i32 0, ptr %3, align 4
  store i32 1, ptr %9, align 4
  br label %58

52:                                               ; preds = %48
  br label %53

53:                                               ; preds = %52, %40
  br label %54

54:                                               ; preds = %53, %32
  br label %55

55:                                               ; preds = %54, %24
  %56 = load i32, ptr %7, align 4, !tbaa !42
  %57 = add i32 %56, 1
  store i32 %57, ptr %7, align 4, !tbaa !42
  store i32 0, ptr %9, align 4
  br label %58

58:                                               ; preds = %55, %51
  call void @llvm.lifetime.end.p0(i64 1, ptr %8) #11
  %59 = load i32, ptr %9, align 4
  switch i32 %59, label %63 [
    i32 0, label %60
  ]

60:                                               ; preds = %58
  br label %10, !llvm.loop !117

61:                                               ; preds = %10
  %62 = load i32, ptr %7, align 4, !tbaa !42
  store i32 %62, ptr %3, align 4
  store i32 1, ptr %9, align 4
  br label %63

63:                                               ; preds = %61, %58
  call void @llvm.lifetime.end.p0(i64 4, ptr %7) #11
  call void @llvm.lifetime.end.p0(i64 4, ptr %6) #11
  %64 = load i32, ptr %3, align 4
  ret i32 %64
}

; Function Attrs: nounwind uwtable
define internal void @mov_text_text_cb(ptr noundef %0, ptr noundef %1, i32 noundef %2) #1 {
  %4 = alloca ptr, align 8
  %5 = alloca ptr, align 8
  %6 = alloca i32, align 4
  %7 = alloca i32, align 4
  %8 = alloca ptr, align 8
  store ptr %0, ptr %4, align 8, !tbaa !29
  store ptr %1, ptr %5, align 8, !tbaa !43
  store i32 %2, ptr %6, align 4, !tbaa !42
  call void @llvm.lifetime.start.p0(i64 4, ptr %7) #11
  %9 = load ptr, ptr %5, align 8, !tbaa !43
  %10 = load i32, ptr %6, align 4, !tbaa !42
  %11 = call i32 @utf8_strlen(ptr noundef %9, i32 noundef %10)
  store i32 %11, ptr %7, align 4, !tbaa !42
  call void @llvm.lifetime.start.p0(i64 8, ptr %8) #11
  %12 = load ptr, ptr %4, align 8, !tbaa !29
  store ptr %12, ptr %8, align 8, !tbaa !29
  %13 = load ptr, ptr %8, align 8, !tbaa !29
  %14 = getelementptr inbounds nuw %struct.MovTextContext, ptr %13, i32 0, i32 8
  %15 = load ptr, ptr %5, align 8, !tbaa !43
  %16 = load i32, ptr %6, align 4, !tbaa !42
  call void @av_bprint_append_data(ptr noundef %14, ptr noundef %15, i32 noundef %16)
  %17 = load i32, ptr %7, align 4, !tbaa !42
  %18 = icmp ne i32 %17, 0
  br i1 %18, label %19, label %21

19:                                               ; preds = %3
  %20 = load i32, ptr %7, align 4, !tbaa !42
  br label %23

21:                                               ; preds = %3
  %22 = load i32, ptr %6, align 4, !tbaa !42
  br label %23

23:                                               ; preds = %21, %19
  %24 = phi i32 [ %20, %19 ], [ %22, %21 ]
  %25 = load ptr, ptr %8, align 8, !tbaa !29
  %26 = getelementptr inbounds nuw %struct.MovTextContext, ptr %25, i32 0, i32 13
  %27 = load i16, ptr %26, align 4, !tbaa !46
  %28 = zext i16 %27 to i32
  %29 = add i32 %28, %24
  %30 = trunc i32 %29 to i16
  store i16 %30, ptr %26, align 4, !tbaa !46
  call void @llvm.lifetime.end.p0(i64 8, ptr %8) #11
  call void @llvm.lifetime.end.p0(i64 4, ptr %7) #11
  ret void
}