; Function Attrs: nounwind uwtable
define internal void @mov_text_text_cb(ptr noundef %0, ptr noundef %1, i32 noundef %2) #1 {
  %.not.i = icmp eq i32 %2, 0
  br i1 %.not.i, label %utf8_strlen.exit.thread, label %.lr.ph.i

.lr.ph.i:                                         ; preds = %3, %18
  %.01625.i = phi i32 [ %20, %18 ], [ 0, %3 ]
  %.01824.i = phi i32 [ %19, %18 ], [ 0, %3 ]
  %4 = zext i32 %.01824.i to i64
  %5 = getelementptr inbounds nuw i8, ptr %1, i64 %4
  %6 = load i8, ptr %5, align 1, !tbaa !58
  %7 = zext i8 %6 to i32
  %8 = icmp sgt i8 %6, -1
  br i1 %8, label %18, label %9

9:                                                ; preds = %.lr.ph.i
  %10 = and i32 %7, 224
  %11 = icmp eq i32 %10, 192
  br i1 %11, label %18, label %12

12:                                               ; preds = %9
  %13 = and i32 %7, 240
  %14 = icmp eq i32 %13, 224
  br i1 %14, label %18, label %15

15:                                               ; preds = %12
  %16 = and i32 %7, 248
  %17 = icmp eq i32 %16, 240
  br i1 %17, label %18, label %utf8_strlen.exit.thread

18:                                               ; preds = %15, %12, %9, %.lr.ph.i
  %.sink.i = phi i32 [ 1, %.lr.ph.i ], [ 2, %9 ], [ 3, %12 ], [ 4, %15 ]
  %19 = add i32 %.sink.i, %.01824.i
  %20 = add i32 %.01625.i, 1
  %21 = icmp ult i32 %19, %2
  br i1 %21, label %.lr.ph.i, label %utf8_strlen.exit, !llvm.loop !107

utf8_strlen.exit.thread:                          ; preds = %15, %3
  %22 = getelementptr inbounds nuw i8, ptr %0, i64 64
  tail call void @av_bprint_append_data(ptr noundef nonnull %22, ptr noundef %1, i32 noundef %2) #8
  br label %24

utf8_strlen.exit:                                 ; preds = %18
  %23 = getelementptr inbounds nuw i8, ptr %0, i64 64
  tail call void @av_bprint_append_data(ptr noundef nonnull %23, ptr noundef nonnull %1, i32 noundef %2) #8
  %.not = icmp eq i32 %20, 0
  br i1 %.not, label %24, label %25

24:                                               ; preds = %utf8_strlen.exit.thread, %utf8_strlen.exit
  br label %25

25:                                               ; preds = %utf8_strlen.exit, %24
  %26 = phi i32 [ %2, %24 ], [ %20, %utf8_strlen.exit ]
  %27 = getelementptr inbounds nuw i8, ptr %0, i64 1116
  %28 = load i16, ptr %27, align 4, !tbaa !74
  %29 = trunc i32 %26 to i16
  %30 = add i16 %28, %29
  store i16 %30, ptr %27, align 4, !tbaa !74
  ret void
}